target datalayout = "e-m:e-p270:32:32-p271:32:32-p272:64:64-i64:64-i128:128-f80:128-n8:16:32:64-S128"
target triple = "x86_64-pc-linux-gnu"

%struct.ident_t = type { i32, i32, i32, i32, ptr }
%"class.ncnn::Option" = type { i8, i32, ptr, ptr, i32, i8, i8, i8, i8, i8, i8, i8, i8, i8, i8, i8, i8, i8, i8, i8, i8, i8, i8, i8, i8, i32, i8, i8, i8, i8, i8, i8, i8, i8, i8, i8, i8, i8 }

@2 = private unnamed_addr constant %struct.ident_t { i32 0, i32 2, i32 0, i32 22, ptr @0 }, align 8

; Function Attrs: mustprogress uwtable
define internal void @_ZN4ncnnL26lstm_transform_weight_int8ERKNS_3MatES2_S2_S2_S2_RS0_S3_S3_iiiiRKNS_6OptionE(ptr noundef nonnull align 8 dereferenceable(72) %0, ptr noundef nonnull align 8 dereferenceable(72) %1, ptr noundef nonnull align 8 dereferenceable(72) %2, ptr noundef nonnull align 8 dereferenceable(72) %3, ptr noundef nonnull align 8 dereferenceable(72) %4, ptr noundef nonnull align 8 dereferenceable(72) %5, ptr noundef nonnull align 8 dereferenceable(72) %6, ptr noundef nonnull align 8 dereferenceable(72) %7, i32 noundef %8, i32 noundef %9, i32 noundef %10, i32 noundef %11, ptr noundef nonnull align 8 dereferenceable(64) %12) #0 {
  %14 = alloca ptr, align 8
  %15 = alloca ptr, align 8
  %16 = alloca ptr, align 8
  %17 = alloca ptr, align 8
  %18 = alloca ptr, align 8
  %19 = alloca ptr, align 8
  %20 = alloca ptr, align 8
  %21 = alloca ptr, align 8
  %22 = alloca i32, align 4
  %23 = alloca i32, align 4
  %24 = alloca i32, align 4
  %25 = alloca i32, align 4
  %26 = alloca ptr, align 8
  %27 = call i32 @__kmpc_global_thread_num(ptr @2)
  store ptr %0, ptr %14, align 8, !tbaa !4
  store ptr %1, ptr %15, align 8, !tbaa !4
  store ptr %2, ptr %16, align 8, !tbaa !4
  store ptr %3, ptr %17, align 8, !tbaa !4
  store ptr %4, ptr %18, align 8, !tbaa !4
  store ptr %5, ptr %19, align 8, !tbaa !4
  store ptr %6, ptr %20, align 8, !tbaa !4
  store ptr %7, ptr %21, align 8, !tbaa !4
  store i32 %8, ptr %22, align 4, !tbaa !9
  store i32 %9, ptr %23, align 4, !tbaa !9
  store i32 %10, ptr %24, align 4, !tbaa !9
  store i32 %11, ptr %25, align 4, !tbaa !9
  store ptr %12, ptr %26, align 8, !tbaa !11
  %28 = load ptr, ptr %19, align 8, !tbaa !4
  %29 = load i32, ptr %22, align 4, !tbaa !9
  %30 = add nsw i32 %29, 4
  %31 = load i32, ptr %23, align 4, !tbaa !9
  %32 = add nsw i32 %30, %31
  %33 = add nsw i32 %32, 4
  %34 = load i32, ptr %25, align 4, !tbaa !9
  %35 = sdiv i32 %34, 4
  %36 = load i32, ptr %25, align 4, !tbaa !9
  %37 = srem i32 %36, 4
  %38 = add nsw i32 %35, %37
  %39 = load i32, ptr %24, align 4, !tbaa !9
  call void @_ZN4ncnn3Mat6createEiiimiPNS_9AllocatorE(ptr noundef nonnull align 8 dereferenceable(72) %28, i32 noundef %33, i32 noundef %38, i32 noundef %39, i64 noundef 16, i32 noundef 16, ptr noundef null)
  %40 = load ptr, ptr %20, align 8, !tbaa !4
  %41 = load i32, ptr %25, align 4, !tbaa !9
  %42 = sdiv i32 %41, 4
  %43 = load i32, ptr %25, align 4, !tbaa !9
  %44 = srem i32 %43, 4
  %45 = add nsw i32 %42, %44
  %46 = load i32, ptr %24, align 4, !tbaa !9
  call void @_ZN4ncnn3Mat6createEiiimPNS_9AllocatorE(ptr noundef nonnull align 8 dereferenceable(72) %40, i32 noundef 32, i32 noundef %45, i32 noundef %46, i64 noundef 4, ptr noundef null)
  %47 = load ptr, ptr %21, align 8, !tbaa !4
  %48 = load i32, ptr %25, align 4, !tbaa !9
  %49 = load i32, ptr %24, align 4, !tbaa !9
  call void @_ZN4ncnn3Mat6createEiiimiPNS_9AllocatorE(ptr noundef nonnull align 8 dereferenceable(72) %47, i32 noundef %48, i32 noundef 1, i32 noundef %49, i64 noundef 16, i32 noundef 4, ptr noundef null)
  %50 = load ptr, ptr %26, align 8, !tbaa !11
  %51 = getelementptr inbounds nuw %"class.ncnn::Option", ptr %50, i32 0, i32 1
  %52 = load i32, ptr %51, align 4, !tbaa !13
  call void @__kmpc_push_num_threads(ptr @2, i32 %27, i32 %52)
  %53 = load ptr, ptr %14, align 8, !tbaa !4
  %54 = load ptr, ptr %16, align 8, !tbaa !4
  %55 = load ptr, ptr %18, align 8, !tbaa !4
  %56 = load ptr, ptr %15, align 8, !tbaa !4
  %57 = load ptr, ptr %17, align 8, !tbaa !4
  %58 = load ptr, ptr %19, align 8, !tbaa !4
  %59 = load ptr, ptr %21, align 8, !tbaa !4
  %60 = load ptr, ptr %20, align 8, !tbaa !4
  call void (ptr, i32, ptr, ...) @__kmpc_fork_call(ptr @2, i32 12, ptr @_ZN4ncnnL26lstm_transform_weight_int8ERKNS_3MatES2_S2_S2_S2_RS0_S3_S3_iiiiRKNS_6OptionE.omp_outlined, ptr %24, ptr %53, ptr %54, ptr %55, ptr %56, ptr %57, ptr %58, ptr %59, ptr %60, ptr %25, ptr %22, ptr %23)
  ret void
}

; Function Attrs: mustprogress uwtable
define hidden void @_ZN4ncnn37lstm_transform_weight_int8_avx512vnniERKNS_3MatES2_S2_S2_S2_RS0_S3_S3_iiiiRKNS_6OptionE(ptr noundef nonnull align 8 dereferenceable(72) %0, ptr noundef nonnull align 8 dereferenceable(72) %1, ptr noundef nonnull align 8 dereferenceable(72) %2, ptr noundef nonnull align 8 dereferenceable(72) %3, ptr noundef nonnull align 8 dereferenceable(72) %4, ptr noundef nonnull align 8 dereferenceable(72) %5, ptr noundef nonnull align 8 dereferenceable(72) %6, ptr noundef nonnull align 8 dereferenceable(72) %7, i32 noundef %8, i32 noundef %9, i32 noundef %10, i32 noundef %11, ptr noundef nonnull align 8 dereferenceable(64) %12) #0 {
  %14 = alloca ptr, align 8
  %15 = alloca ptr, align 8
  %16 = alloca ptr, align 8
  %17 = alloca ptr, align 8
  %18 = alloca ptr, align 8
  %19 = alloca ptr, align 8
  %20 = alloca ptr, align 8
  %21 = alloca ptr, align 8
  %22 = alloca i32, align 4
  %23 = alloca i32, align 4
  %24 = alloca i32, align 4
  %25 = alloca i32, align 4
  %26 = alloca ptr, align 8
  store ptr %0, ptr %14, align 8, !tbaa !4
  store ptr %1, ptr %15, align 8, !tbaa !4
  store ptr %2, ptr %16, align 8, !tbaa !4
  store ptr %3, ptr %17, align 8, !tbaa !4
  store ptr %4, ptr %18, align 8, !tbaa !4
  store ptr %5, ptr %19, align 8, !tbaa !4
  store ptr %6, ptr %20, align 8, !tbaa !4
  store ptr %7, ptr %21, align 8, !tbaa !4
  store i32 %8, ptr %22, align 4, !tbaa !9
  store i32 %9, ptr %23, align 4, !tbaa !9
  store i32 %10, ptr %24, align 4, !tbaa !9
  store i32 %11, ptr %25, align 4, !tbaa !9
  store ptr %12, ptr %26, align 8, !tbaa !11
  %27 = load ptr, ptr %14, align 8, !tbaa !4
  %28 = load ptr, ptr %15, align 8, !tbaa !4
  %29 = load ptr, ptr %16, align 8, !tbaa !4
  %30 = load ptr, ptr %17, align 8, !tbaa !4
  %31 = load ptr, ptr %18, align 8, !tbaa !4
  %32 = load ptr, ptr %19, align 8, !tbaa !4
  %33 = load ptr, ptr %20, align 8, !tbaa !4
  %34 = load ptr, ptr %21, align 8, !tbaa !4
  %35 = load i32, ptr %22, align 4, !tbaa !9
  %36 = load i32, ptr %23, align 4, !tbaa !9
  %37 = load i32, ptr %24, align 4, !tbaa !9
  %38 = load i32, ptr %25, align 4, !tbaa !9
  %39 = load ptr, ptr %26, align 8, !tbaa !11
  call void @_ZN4ncnnL26lstm_transform_weight_int8ERKNS_3MatES2_S2_S2_S2_RS0_S3_S3_iiiiRKNS_6OptionE(ptr noundef nonnull align 8 dereferenceable(72) %27, ptr noundef nonnull align 8 dereferenceable(72) %28, ptr noundef nonnull align 8 dereferenceable(72) %29, ptr noundef nonnull align 8 dereferenceable(72) %30, ptr noundef nonnull align 8 dereferenceable(72) %31, ptr noundef nonnull align 8 dereferenceable(72) %32, ptr noundef nonnull align 8 dereferenceable(72) %33, ptr noundef nonnull align 8 dereferenceable(72) %34, i32 noundef %35, i32 noundef %36, i32 noundef %37, i32 noundef %38, ptr noundef nonnull align 8 dereferenceable(64) %39)
  ret void
}